; Function Attrs: nounwind uwtable
define dso_local ptr @setTypeCreate(ptr noundef %0, i64 noundef %1) local_unnamed_addr #0 {
  %3 = tail call i32 @isSdsRepresentableAsLongLong(ptr noundef %0, ptr noundef null) #10
  %4 = icmp ne i32 %3, 0
  %5 = load i64, ptr getelementptr inbounds nuw (i8, ptr @server, i64 7712), align 8
  %.not = icmp ugt i64 %1, %5
  %or.cond = select i1 %4, i1 true, i1 %.not
  br i1 %or.cond, label %8, label %6

6:                                                ; preds = %2
  %7 = tail call ptr @createIntsetObject() #10
  br label %17

8:                                                ; preds = %2
  %9 = load i64, ptr getelementptr inbounds nuw (i8, ptr @server, i64 7720), align 8, !tbaa !5
  %.not7 = icmp ugt i64 %1, %9
  br i1 %.not7, label %12, label %10

10:                                               ; preds = %8
  %11 = tail call ptr @createSetListpackObject() #10
  br label %17

12:                                               ; preds = %8
  %13 = tail call ptr @createSetObject() #10
  %14 = getelementptr inbounds nuw i8, ptr %13, i64 8
  %15 = load ptr, ptr %14, align 8, !tbaa !38
  %16 = tail call i32 @dictExpand(ptr noundef %15, i64 noundef %1) #10
  br label %17

17:                                               ; preds = %12, %10, %6
  %.0 = phi ptr [ %7, %6 ], [ %11, %10 ], [ %13, %12 ]
  ret ptr %.0
}